; Function Attrs: mustprogress uwtable
define hidden noundef i32 @_ZN5ceres8internal33GradientCheckingIterationCallbackclERKNS_16IterationSummaryE(ptr nocapture noundef nonnull readonly align 8 dereferenceable(88) %0, ptr nocapture nonnull readnone align 8 %1) unnamed_addr #2 align 2 personality ptr @__gxx_personality_v0 {
  %3 = alloca %"class.google::LogMessage", align 8
  %4 = getelementptr inbounds i8, ptr %0, i64 8
  %5 = load i8, ptr %4, align 8
  %6 = and i8 %5, 1
  %.not = icmp eq i8 %6, 0
  br i1 %.not, label %14, label %7

7:                                                ; preds = %2
  call void @_ZN6google10LogMessageC1EPKcii(ptr noundef nonnull align 8 dereferenceable(96) %3, ptr noundef nonnull @.str, i32 noundef 137, i32 noundef 2)
  %8 = invoke noundef nonnull align 8 dereferenceable(8) ptr @_ZN6google10LogMessage6streamEv(ptr noundef nonnull align 8 dereferenceable(96) %3)
          to label %9 unwind label %12

9:                                                ; preds = %7
  %10 = invoke noundef nonnull align 8 dereferenceable(8) ptr @_ZStlsISt11char_traitsIcEERSt13basic_ostreamIcT_ES5_PKc(ptr noundef nonnull align 8 dereferenceable(8) %8, ptr noundef nonnull @.str.3)
          to label %11 unwind label %12

11:                                               ; preds = %9
  call void @_ZN6google10LogMessageD1Ev(ptr noundef nonnull align 8 dereferenceable(96) %3) #17
  br label %14

12:                                               ; preds = %9, %7
  %13 = landingpad { ptr, i32 }
          cleanup
  call void @_ZN6google10LogMessageD1Ev(ptr noundef nonnull align 8 dereferenceable(96) %3) #17
  resume { ptr, i32 } %13

14:                                               ; preds = %2, %11
  %.0 = phi i32 [ 1, %11 ], [ 0, %2 ]
  ret i32 %.0
}